target datalayout = "e-m:e-p270:32:32-p271:32:32-p272:64:64-i64:64-i128:128-f80:128-n8:16:32:64-S128"
target triple = "x86_64-pc-linux-gnu"

@new_called = internal global i32 0, align 4
@do_cache = internal global i32 0, align 4
@sesscache = internal global [6 x ptr] zeroinitializer, align 16

; Function Attrs: nounwind uwtable
define internal i32 @new_cachesession_cb(ptr noundef %0, ptr noundef %1) #0 {
  %3 = alloca ptr, align 8
  %4 = alloca ptr, align 8
  store ptr %0, ptr %3, align 8, !tbaa !21
  store ptr %1, ptr %4, align 8, !tbaa !33
  %5 = load i32, ptr @do_cache, align 4, !tbaa !13
  %6 = icmp ne i32 %5, 0
  br i1 %6, label %7, label %12

7:                                                ; preds = %2
  %8 = load ptr, ptr %4, align 8, !tbaa !33
  %9 = load i32, ptr @new_called, align 4, !tbaa !13
  %10 = sext i32 %9 to i64
  %11 = getelementptr inbounds [6 x ptr], ptr @sesscache, i64 0, i64 %10
  store ptr %8, ptr %11, align 8, !tbaa !33
  br label %14

12:                                               ; preds = %2
  %13 = load ptr, ptr %4, align 8, !tbaa !33
  call void @SSL_SESSION_free(ptr noundef %13)
  br label %14

14:                                               ; preds = %12, %7
  %15 = load i32, ptr @new_called, align 4, !tbaa !13
  %16 = add nsw i32 %15, 1
  store i32 %16, ptr @new_called, align 4, !tbaa !13
  ret i32 1
}