; Function Attrs: nounwind uwtable
define internal noundef i32 @new_cachesession_cb(ptr readnone captures(none) %0, ptr noundef %1) #1 {
  %.b = load i1, ptr @do_cache, align 4
  br i1 %.b, label %3, label %7

3:                                                ; preds = %2
  %4 = load i32, ptr @new_called, align 4, !tbaa !14
  %5 = sext i32 %4 to i64
  %6 = getelementptr inbounds [6 x ptr], ptr @sesscache, i64 0, i64 %5
  store ptr %1, ptr %6, align 8, !tbaa !25
  br label %8

7:                                                ; preds = %2
  tail call void @SSL_SESSION_free(ptr noundef %1) #24
  %.pre = load i32, ptr @new_called, align 4, !tbaa !14
  br label %8

8:                                                ; preds = %7, %3
  %9 = phi i32 [ %.pre, %7 ], [ %4, %3 ]
  %10 = add nsw i32 %9, 1
  store i32 %10, ptr @new_called, align 4, !tbaa !14
  ret i32 1
}